; Function Attrs: mustprogress nofree norecurse nosync nounwind willreturn memory(argmem: read) uwtable
define noundef float @_ZNK3gmx8MttkData13kineticEnergyEv(ptr noundef nonnull readonly align 8 captures(none) dereferenceable(152) %0) local_unnamed_addr #24 align 2 {
  %2 = getelementptr inbounds nuw i8, ptr %0, i64 12
  %3 = load float, ptr %2, align 4, !tbaa !328
  %4 = fpext float %3 to double
  %5 = fmul double %4, 5.000000e-01
  %6 = fmul double %5, %4
  %7 = getelementptr inbounds nuw i8, ptr %0, i64 16
  %8 = load float, ptr %7, align 8, !tbaa !326
  %9 = fpext float %8 to double
  %10 = fdiv double %6, %9
  %11 = fptrunc double %10 to float
  ret float %11
}